; Function Attrs: mustprogress nofree norecurse nosync nounwind willreturn memory(read, inaccessiblemem: none) uwtable
define internal noundef zeroext i1 @_ZZN6recfun3def12contains_defERNS_4utilEP4exprEN10def_find_pclES4_(ptr nocapture noundef nonnull readonly align 8 dereferenceable(16) %this, ptr nocapture noundef readonly %a) unnamed_addr #13 align 2 {
entry:
  %m_kind.i.i = getelementptr inbounds i8, ptr %a, i64 4
  %bf.load.i.i = load i32, ptr %m_kind.i.i, align 4
  %bf.clear.i.i = and i32 %bf.load.i.i, 65535
  %cmp.i = icmp eq i32 %bf.clear.i.i, 0
  br i1 %cmp.i, label %land.rhs, label %land.end

land.rhs:                                         ; preds = %entry
  %m_decl.i = getelementptr inbounds i8, ptr %a, i64 16
  %0 = load ptr, ptr %m_decl.i, align 8
  %m_info.i.i.i = getelementptr inbounds i8, ptr %0, i64 24
  %1 = load ptr, ptr %m_info.i.i.i, align 8
  %cmp.i.i.i = icmp eq ptr %1, null
  br i1 %cmp.i.i.i, label %land.end, label %_ZNK4decl13get_family_idEv.exit.thread.i.i

_ZNK4decl13get_family_idEv.exit.thread.i.i:       ; preds = %land.rhs
  %u = getelementptr inbounds i8, ptr %this, i64 8
  %2 = load ptr, ptr %u, align 8
  %m_fid.i = getelementptr inbounds i8, ptr %2, i64 8
  %3 = load i32, ptr %m_fid.i, align 8
  %4 = load i32, ptr %1, align 8
  %cmp7.i.i = icmp eq i32 %4, %3
  br i1 %cmp7.i.i, label %cond.false.i4.i.i, label %land.end

cond.false.i4.i.i:                                ; preds = %_ZNK4decl13get_family_idEv.exit.thread.i.i
  %m_kind.i.i.i.i = getelementptr inbounds i8, ptr %1, i64 4
  %5 = load i32, ptr %m_kind.i.i.i.i, align 4
  %6 = icmp eq i32 %5, 0
  br label %land.end

land.end:                                         ; preds = %cond.false.i4.i.i, %_ZNK4decl13get_family_idEv.exit.thread.i.i, %land.rhs, %entry
  %7 = phi i1 [ false, %entry ], [ false, %_ZNK4decl13get_family_idEv.exit.thread.i.i ], [ %6, %cond.false.i4.i.i ], [ false, %land.rhs ]
  ret i1 %7
}